; Function Attrs: nounwind uwtable
define internal noundef i32 @get_8bit_gray_row(ptr nocapture noundef readonly %0, ptr noundef %1) #0 {
  %3 = getelementptr inbounds i8, ptr %0, i64 48
  %4 = load i32, ptr %3, align 8
  %.not9 = icmp eq i32 %4, 0
  br i1 %.not9, label %._crit_edge, label %.lr.ph

.lr.ph:                                           ; preds = %2
  %5 = getelementptr inbounds i8, ptr %1, i64 32
  %6 = load ptr, ptr %5, align 8
  %7 = load ptr, ptr %6, align 8
  %8 = getelementptr inbounds i8, ptr %1, i64 96
  %9 = getelementptr inbounds i8, ptr %1, i64 104
  br label %10

10:                                               ; preds = %.lr.ph, %10
  %.011 = phi i32 [ %4, %.lr.ph ], [ %14, %10 ]
  %.0810 = phi ptr [ %7, %.lr.ph ], [ %13, %10 ]
  %11 = load ptr, ptr %8, align 8
  tail call void %11(ptr noundef nonnull %1) #3
  %12 = load i8, ptr %9, align 8
  %13 = getelementptr inbounds i8, ptr %.0810, i64 1
  store i8 %12, ptr %.0810, align 1
  %14 = add i32 %.011, -1
  %.not = icmp eq i32 %14, 0
  br i1 %.not, label %._crit_edge, label %10, !llvm.loop !13

._crit_edge:                                      ; preds = %10, %2
  ret i32 1
}